target datalayout = "e-m:e-p270:32:32-p271:32:32-p272:64:64-i64:64-i128:128-f80:128-n8:16:32:64-S128"
target triple = "x86_64-pc-linux-gnu"

%struct.ExtraMetaList = type { ptr, ptr }
%struct.ID3v2ExtraMeta = type { ptr, ptr, %union.anon }
%union.anon = type { %struct.ID3v2ExtraMetaGEOB }
%struct.ID3v2ExtraMetaGEOB = type { i32, ptr, ptr, ptr, ptr }

@.str.84 = private unnamed_addr constant [26 x i8] c"Failed to alloc %d bytes\0A\00", align 1
@.str.92 = private unnamed_addr constant [33 x i8] c"Error reading frame %s, skipped\0A\00", align 1
@.str.124 = private unnamed_addr constant [5 x i8] c"GEOB\00", align 1
@.str.126 = private unnamed_addr constant [27 x i8] c"Failed to alloc %zu bytes\0A\00", align 1
@.str.127 = private unnamed_addr constant [43 x i8] c"Error reading GEOB frame, data truncated.\0A\00", align 1

; Function Attrs: nounwind uwtable
define internal void @free_geobtag(ptr noundef %0) #0 {
  %2 = alloca ptr, align 8
  %3 = alloca ptr, align 8
  store ptr %0, ptr %2, align 8, !tbaa !108
  call void @llvm.lifetime.start.p0(i64 8, ptr %3) #10
  %4 = load ptr, ptr %2, align 8, !tbaa !108
  store ptr %4, ptr %3, align 8, !tbaa !115
  %5 = load ptr, ptr %3, align 8, !tbaa !115
  %6 = getelementptr inbounds nuw %struct.ID3v2ExtraMetaGEOB, ptr %5, i32 0, i32 1
  call void @av_freep(ptr noundef %6)
  %7 = load ptr, ptr %3, align 8, !tbaa !115
  %8 = getelementptr inbounds nuw %struct.ID3v2ExtraMetaGEOB, ptr %7, i32 0, i32 2
  call void @av_freep(ptr noundef %8)
  %9 = load ptr, ptr %3, align 8, !tbaa !115
  %10 = getelementptr inbounds nuw %struct.ID3v2ExtraMetaGEOB, ptr %9, i32 0, i32 3
  call void @av_freep(ptr noundef %10)
  %11 = load ptr, ptr %3, align 8, !tbaa !115
  %12 = getelementptr inbounds nuw %struct.ID3v2ExtraMetaGEOB, ptr %11, i32 0, i32 4
  call void @av_freep(ptr noundef %12)
  call void @llvm.lifetime.end.p0(i64 8, ptr %3) #10
  ret void
}

; Function Attrs: nounwind uwtable
define internal void @list_append(ptr noundef %0, ptr noundef %1) #0 {
  %3 = alloca ptr, align 8
  %4 = alloca ptr, align 8
  store ptr %0, ptr %3, align 8, !tbaa !23
  store ptr %1, ptr %4, align 8, !tbaa !92
  %5 = load ptr, ptr %4, align 8, !tbaa !92
  %6 = getelementptr inbounds nuw %struct.ExtraMetaList, ptr %5, i32 0, i32 1
  %7 = load ptr, ptr %6, align 8, !tbaa !130
  %8 = icmp ne ptr %7, null
  br i1 %8, label %9, label %15

9:                                                ; preds = %2
  %10 = load ptr, ptr %3, align 8, !tbaa !23
  %11 = load ptr, ptr %4, align 8, !tbaa !92
  %12 = getelementptr inbounds nuw %struct.ExtraMetaList, ptr %11, i32 0, i32 1
  %13 = load ptr, ptr %12, align 8, !tbaa !130
  %14 = getelementptr inbounds nuw %struct.ID3v2ExtraMeta, ptr %13, i32 0, i32 1
  store ptr %10, ptr %14, align 8, !tbaa !47
  br label %19

15:                                               ; preds = %2
  %16 = load ptr, ptr %3, align 8, !tbaa !23
  %17 = load ptr, ptr %4, align 8, !tbaa !92
  %18 = getelementptr inbounds nuw %struct.ExtraMetaList, ptr %17, i32 0, i32 0
  store ptr %16, ptr %18, align 8, !tbaa !27
  br label %19

19:                                               ; preds = %15, %9
  %20 = load ptr, ptr %3, align 8, !tbaa !23
  %21 = load ptr, ptr %4, align 8, !tbaa !92
  %22 = getelementptr inbounds nuw %struct.ExtraMetaList, ptr %21, i32 0, i32 1
  store ptr %20, ptr %22, align 8, !tbaa !130
  ret void
}

; Function Attrs: nounwind uwtable
define internal void @read_geobtag(ptr noundef %0, ptr noundef %1, i32 noundef %2, ptr noundef %3, ptr noundef %4, i32 noundef %5) #0 {
  %7 = alloca ptr, align 8
  %8 = alloca ptr, align 8
  %9 = alloca i32, align 4
  %10 = alloca ptr, align 8
  %11 = alloca ptr, align 8
  %12 = alloca i32, align 4
  %13 = alloca ptr, align 8
  %14 = alloca ptr, align 8
  %15 = alloca i8, align 1
  %16 = alloca i32, align 4
  %17 = alloca i32, align 4
  store ptr %0, ptr %7, align 8, !tbaa !19
  store ptr %1, ptr %8, align 8, !tbaa !12
  store i32 %2, ptr %9, align 4, !tbaa !10
  store ptr %3, ptr %10, align 8, !tbaa !4
  store ptr %4, ptr %11, align 8, !tbaa !92
  store i32 %5, ptr %12, align 4, !tbaa !10
  call void @llvm.lifetime.start.p0(i64 8, ptr %13) #10
  store ptr null, ptr %13, align 8, !tbaa !115
  call void @llvm.lifetime.start.p0(i64 8, ptr %14) #10
  store ptr null, ptr %14, align 8, !tbaa !23
  call void @llvm.lifetime.start.p0(i64 1, ptr %15) #10
  call void @llvm.lifetime.start.p0(i64 4, ptr %16) #10
  %18 = load i32, ptr %9, align 4, !tbaa !10
  %19 = icmp slt i32 %18, 1
  br i1 %19, label %20, label %21

20:                                               ; preds = %6
  store i32 1, ptr %17, align 4
  br label %117

21:                                               ; preds = %6
  %22 = call noalias ptr @av_mallocz(i64 noundef 56)
  store ptr %22, ptr %14, align 8, !tbaa !23
  %23 = load ptr, ptr %14, align 8, !tbaa !23
  %24 = icmp ne ptr %23, null
  br i1 %24, label %27, label %25

25:                                               ; preds = %21
  %26 = load ptr, ptr %7, align 8, !tbaa !19
  call void (ptr, i32, ptr, ...) @av_log(ptr noundef %26, i32 noundef 16, ptr noundef @.str.126, i64 noundef 56)
  store i32 1, ptr %17, align 4
  br label %117

27:                                               ; preds = %21
  %28 = load ptr, ptr %14, align 8, !tbaa !23
  %29 = getelementptr inbounds nuw %struct.ID3v2ExtraMeta, ptr %28, i32 0, i32 2
  store ptr %29, ptr %13, align 8, !tbaa !115
  %30 = load ptr, ptr %8, align 8, !tbaa !12
  %31 = call i32 @avio_r8(ptr noundef %30)
  %32 = trunc i32 %31 to i8
  store i8 %32, ptr %15, align 1, !tbaa !9
  %33 = load i32, ptr %9, align 4, !tbaa !10
  %34 = add nsw i32 %33, -1
  store i32 %34, ptr %9, align 4, !tbaa !10
  %35 = load ptr, ptr %7, align 8, !tbaa !19
  %36 = load ptr, ptr %8, align 8, !tbaa !12
  %37 = load ptr, ptr %13, align 8, !tbaa !115
  %38 = getelementptr inbounds nuw %struct.ID3v2ExtraMetaGEOB, ptr %37, i32 0, i32 1
  %39 = call i32 @decode_str(ptr noundef %35, ptr noundef %36, i32 noundef 0, ptr noundef %38, ptr noundef %9)
  %40 = icmp slt i32 %39, 0
  br i1 %40, label %44, label %41

41:                                               ; preds = %27
  %42 = load i32, ptr %9, align 4, !tbaa !10
  %43 = icmp sle i32 %42, 0
  br i1 %43, label %44, label %45

44:                                               ; preds = %41, %27
  br label %112

45:                                               ; preds = %41
  %46 = load ptr, ptr %7, align 8, !tbaa !19
  %47 = load ptr, ptr %8, align 8, !tbaa !12
  %48 = load i8, ptr %15, align 1, !tbaa !9
  %49 = sext i8 %48 to i32
  %50 = load ptr, ptr %13, align 8, !tbaa !115
  %51 = getelementptr inbounds nuw %struct.ID3v2ExtraMetaGEOB, ptr %50, i32 0, i32 2
  %52 = call i32 @decode_str(ptr noundef %46, ptr noundef %47, i32 noundef %49, ptr noundef %51, ptr noundef %9)
  %53 = icmp slt i32 %52, 0
  br i1 %53, label %57, label %54

54:                                               ; preds = %45
  %55 = load i32, ptr %9, align 4, !tbaa !10
  %56 = icmp sle i32 %55, 0
  br i1 %56, label %57, label %58

57:                                               ; preds = %54, %45
  br label %112

58:                                               ; preds = %54
  %59 = load ptr, ptr %7, align 8, !tbaa !19
  %60 = load ptr, ptr %8, align 8, !tbaa !12
  %61 = load i8, ptr %15, align 1, !tbaa !9
  %62 = sext i8 %61 to i32
  %63 = load ptr, ptr %13, align 8, !tbaa !115
  %64 = getelementptr inbounds nuw %struct.ID3v2ExtraMetaGEOB, ptr %63, i32 0, i32 3
  %65 = call i32 @decode_str(ptr noundef %59, ptr noundef %60, i32 noundef %62, ptr noundef %64, ptr noundef %9)
  %66 = icmp slt i32 %65, 0
  br i1 %66, label %70, label %67

67:                                               ; preds = %58
  %68 = load i32, ptr %9, align 4, !tbaa !10
  %69 = icmp slt i32 %68, 0
  br i1 %69, label %70, label %71

70:                                               ; preds = %67, %58
  br label %112

71:                                               ; preds = %67
  %72 = load i32, ptr %9, align 4, !tbaa !10
  %73 = icmp ne i32 %72, 0
  br i1 %73, label %74, label %102

74:                                               ; preds = %71
  %75 = load i32, ptr %9, align 4, !tbaa !10
  %76 = sext i32 %75 to i64
  %77 = call noalias ptr @av_malloc(i64 noundef %76)
  %78 = load ptr, ptr %13, align 8, !tbaa !115
  %79 = getelementptr inbounds nuw %struct.ID3v2ExtraMetaGEOB, ptr %78, i32 0, i32 4
  store ptr %77, ptr %79, align 8, !tbaa !117
  %80 = load ptr, ptr %13, align 8, !tbaa !115
  %81 = getelementptr inbounds nuw %struct.ID3v2ExtraMetaGEOB, ptr %80, i32 0, i32 4
  %82 = load ptr, ptr %81, align 8, !tbaa !117
  %83 = icmp ne ptr %82, null
  br i1 %83, label %87, label %84

84:                                               ; preds = %74
  %85 = load ptr, ptr %7, align 8, !tbaa !19
  %86 = load i32, ptr %9, align 4, !tbaa !10
  call void (ptr, i32, ptr, ...) @av_log(ptr noundef %85, i32 noundef 16, ptr noundef @.str.84, i32 noundef %86)
  br label %112

87:                                               ; preds = %74
  %88 = load ptr, ptr %8, align 8, !tbaa !12
  %89 = load ptr, ptr %13, align 8, !tbaa !115
  %90 = getelementptr inbounds nuw %struct.ID3v2ExtraMetaGEOB, ptr %89, i32 0, i32 4
  %91 = load ptr, ptr %90, align 8, !tbaa !117
  %92 = load i32, ptr %9, align 4, !tbaa !10
  %93 = call i32 @avio_read(ptr noundef %88, ptr noundef %91, i32 noundef %92)
  store i32 %93, ptr %16, align 4, !tbaa !10
  %94 = load i32, ptr %9, align 4, !tbaa !10
  %95 = icmp ult i32 %93, %94
  br i1 %95, label %96, label %98

96:                                               ; preds = %87
  %97 = load ptr, ptr %7, align 8, !tbaa !19
  call void (ptr, i32, ptr, ...) @av_log(ptr noundef %97, i32 noundef 24, ptr noundef @.str.127)
  br label %98

98:                                               ; preds = %96, %87
  %99 = load i32, ptr %16, align 4, !tbaa !10
  %100 = load ptr, ptr %13, align 8, !tbaa !115
  %101 = getelementptr inbounds nuw %struct.ID3v2ExtraMetaGEOB, ptr %100, i32 0, i32 0
  store i32 %99, ptr %101, align 8, !tbaa !119
  br label %107

102:                                              ; preds = %71
  %103 = load ptr, ptr %13, align 8, !tbaa !115
  %104 = getelementptr inbounds nuw %struct.ID3v2ExtraMetaGEOB, ptr %103, i32 0, i32 4
  store ptr null, ptr %104, align 8, !tbaa !117
  %105 = load ptr, ptr %13, align 8, !tbaa !115
  %106 = getelementptr inbounds nuw %struct.ID3v2ExtraMetaGEOB, ptr %105, i32 0, i32 0
  store i32 0, ptr %106, align 8, !tbaa !119
  br label %107

107:                                              ; preds = %102, %98
  %108 = load ptr, ptr %14, align 8, !tbaa !23
  %109 = getelementptr inbounds nuw %struct.ID3v2ExtraMeta, ptr %108, i32 0, i32 0
  store ptr @.str.124, ptr %109, align 8, !tbaa !41
  %110 = load ptr, ptr %14, align 8, !tbaa !23
  %111 = load ptr, ptr %11, align 8, !tbaa !92
  call void @list_append(ptr noundef %110, ptr noundef %111)
  store i32 1, ptr %17, align 4
  br label %117

112:                                              ; preds = %84, %70, %57, %44
  %113 = load ptr, ptr %7, align 8, !tbaa !19
  %114 = load ptr, ptr %10, align 8, !tbaa !4
  call void (ptr, i32, ptr, ...) @av_log(ptr noundef %113, i32 noundef 16, ptr noundef @.str.92, ptr noundef %114)
  %115 = load ptr, ptr %13, align 8, !tbaa !115
  call void @free_geobtag(ptr noundef %115)
  %116 = load ptr, ptr %14, align 8, !tbaa !23
  call void @av_free(ptr noundef %116)
  store i32 1, ptr %17, align 4
  br label %117

117:                                              ; preds = %112, %107, %25, %20
  call void @llvm.lifetime.end.p0(i64 4, ptr %16) #10
  call void @llvm.lifetime.end.p0(i64 1, ptr %15) #10
  call void @llvm.lifetime.end.p0(i64 8, ptr %14) #10
  call void @llvm.lifetime.end.p0(i64 8, ptr %13) #10
  ret void
}