; Function Attrs: nounwind uwtable
define internal void @read_geobtag(ptr noundef %0, ptr noundef %1, i32 noundef %2, ptr noundef %3, ptr noundef captures(none) %4, i32 %5) #2 {
  %7 = alloca i32, align 4
  %8 = icmp slt i32 %2, 1
  br i1 %8, label %56, label %9

9:                                                ; preds = %6
  %10 = tail call noalias ptr @av_mallocz(i64 noundef 56) #9
  %.not = icmp eq ptr %10, null
  br i1 %.not, label %11, label %12

11:                                               ; preds = %9
  tail call void (ptr, i32, ptr, ...) @av_log(ptr noundef %0, i32 noundef 16, ptr noundef nonnull @.str.126, i64 noundef 56) #9
  br label %56

12:                                               ; preds = %9
  %13 = getelementptr inbounds nuw i8, ptr %10, i64 16
  %14 = tail call i32 @avio_r8(ptr noundef %1) #9
  %15 = add nsw i32 %2, -1
  store i32 %15, ptr %7, align 4, !tbaa !12
  %16 = getelementptr inbounds nuw i8, ptr %10, i64 24
  %17 = call fastcc i32 @decode_str(ptr noundef %0, ptr noundef %1, i32 noundef 0, ptr noundef %16, ptr noundef %7)
  %18 = icmp slt i32 %17, 0
  %19 = load i32, ptr %7, align 4
  %20 = icmp slt i32 %19, 1
  %or.cond = select i1 %18, i1 true, i1 %20
  br i1 %or.cond, label %52, label %21

21:                                               ; preds = %12
  %sext = shl i32 %14, 24
  %22 = ashr exact i32 %sext, 24
  %23 = getelementptr inbounds nuw i8, ptr %10, i64 32
  %24 = call fastcc i32 @decode_str(ptr noundef %0, ptr noundef %1, i32 noundef %22, ptr noundef %23, ptr noundef %7)
  %25 = icmp slt i32 %24, 0
  %26 = load i32, ptr %7, align 4
  %27 = icmp slt i32 %26, 1
  %or.cond3 = select i1 %25, i1 true, i1 %27
  br i1 %or.cond3, label %52, label %28

28:                                               ; preds = %21
  %29 = getelementptr inbounds nuw i8, ptr %10, i64 40
  %30 = call fastcc i32 @decode_str(ptr noundef %0, ptr noundef %1, i32 noundef %22, ptr noundef %29, ptr noundef %7)
  %31 = icmp slt i32 %30, 0
  %32 = load i32, ptr %7, align 4
  %33 = icmp slt i32 %32, 0
  %or.cond5 = select i1 %31, i1 true, i1 %33
  br i1 %or.cond5, label %52, label %34

34:                                               ; preds = %28
  %.not38 = icmp eq i32 %32, 0
  br i1 %.not38, label %44, label %35

35:                                               ; preds = %34
  %36 = zext nneg i32 %32 to i64
  %37 = tail call noalias ptr @av_malloc(i64 noundef %36) #9
  %38 = getelementptr inbounds nuw i8, ptr %10, i64 48
  store ptr %37, ptr %38, align 8, !tbaa !91
  %.not39 = icmp eq ptr %37, null
  br i1 %.not39, label %39, label %40

39:                                               ; preds = %35
  tail call void (ptr, i32, ptr, ...) @av_log(ptr noundef %0, i32 noundef 16, ptr noundef nonnull @.str.84, i32 noundef %32) #9
  br label %52

40:                                               ; preds = %35
  %41 = tail call i32 @avio_read(ptr noundef %1, ptr noundef nonnull %37, i32 noundef %32) #9
  %42 = icmp ult i32 %41, %32
  br i1 %42, label %43, label %46

43:                                               ; preds = %40
  tail call void (ptr, i32, ptr, ...) @av_log(ptr noundef %0, i32 noundef 24, ptr noundef nonnull @.str.127) #9
  br label %46

44:                                               ; preds = %34
  %45 = getelementptr inbounds nuw i8, ptr %10, i64 48
  store ptr null, ptr %45, align 8, !tbaa !91
  br label %46

46:                                               ; preds = %40, %43, %44
  %storemerge = phi i32 [ 0, %44 ], [ %41, %43 ], [ %41, %40 ]
  store i32 %storemerge, ptr %13, align 8, !tbaa !93
  store ptr @.str.124, ptr %10, align 8, !tbaa !47
  %47 = getelementptr inbounds nuw i8, ptr %4, i64 8
  %48 = load ptr, ptr %47, align 8, !tbaa !94
  %.not.i = icmp eq ptr %48, null
  br i1 %.not.i, label %51, label %49

49:                                               ; preds = %46
  %50 = getelementptr inbounds nuw i8, ptr %48, i64 8
  store ptr %10, ptr %50, align 8, !tbaa !50
  br label %list_append.exit

51:                                               ; preds = %46
  store ptr %10, ptr %4, align 8, !tbaa !32
  br label %list_append.exit

list_append.exit:                                 ; preds = %49, %51
  store ptr %10, ptr %47, align 8, !tbaa !94
  br label %56

52:                                               ; preds = %28, %21, %12, %39
  tail call void (ptr, i32, ptr, ...) @av_log(ptr noundef %0, i32 noundef 16, ptr noundef nonnull @.str.92, ptr noundef %3) #9
  tail call void @av_freep(ptr noundef nonnull %16) #9
  %53 = getelementptr inbounds nuw i8, ptr %10, i64 32
  tail call void @av_freep(ptr noundef nonnull %53) #9
  %54 = getelementptr inbounds nuw i8, ptr %10, i64 40
  tail call void @av_freep(ptr noundef nonnull %54) #9
  %55 = getelementptr inbounds nuw i8, ptr %10, i64 48
  tail call void @av_freep(ptr noundef nonnull %55) #9
  tail call void @av_free(ptr noundef nonnull %10) #9
  br label %56

56:                                               ; preds = %6, %52, %list_append.exit, %11
  ret void
}